target datalayout = "e-m:e-p270:32:32-p271:32:32-p272:64:64-i64:64-i128:128-f80:128-n8:16:32:64-S128"
target triple = "x86_64-pc-linux-gnu"

%struct.pointf_s = type { double, double }
%struct.boxf = type { %struct.pointf_s, %struct.pointf_s }

; Function Attrs: nounwind uwtable
define internal void @limitBoxes(ptr noundef %0, i64 noundef %1, ptr noundef %2, i64 noundef %3, double noundef %4) #0 {
  %6 = alloca ptr, align 8
  %7 = alloca i64, align 8
  %8 = alloca ptr, align 8
  %9 = alloca i64, align 8
  %10 = alloca double, align 8
  %11 = alloca double, align 8
  %12 = alloca [4 x %struct.pointf_s], align 16
  %13 = alloca double, align 8
  %14 = alloca i64, align 8
  %15 = alloca i32, align 4
  %16 = alloca double, align 8
  %17 = alloca i64, align 8
  store ptr %0, ptr %6, align 8, !tbaa !30
  store i64 %1, ptr %7, align 8, !tbaa !20
  store ptr %2, ptr %8, align 8, !tbaa !26
  store i64 %3, ptr %9, align 8, !tbaa !20
  store double %4, ptr %10, align 8, !tbaa !23
  call void @llvm.lifetime.start.p0(i64 8, ptr %11) #13
  call void @llvm.lifetime.start.p0(i64 64, ptr %12) #13
  call void @llvm.lifetime.start.p0(i64 8, ptr %13) #13
  %18 = load double, ptr %10, align 8, !tbaa !23
  %19 = load i64, ptr %7, align 8, !tbaa !20
  %20 = uitofp i64 %19 to double
  %21 = fmul double %18, %20
  store double %21, ptr %13, align 8, !tbaa !23
  call void @llvm.lifetime.start.p0(i64 8, ptr %14) #13
  store i64 0, ptr %14, align 8, !tbaa !20
  br label %22

22:                                               ; preds = %270, %5
  %23 = load i64, ptr %14, align 8, !tbaa !20
  %24 = add i64 %23, 3
  %25 = load i64, ptr %9, align 8, !tbaa !20
  %26 = icmp ult i64 %24, %25
  br i1 %26, label %28, label %27

27:                                               ; preds = %22
  store i32 2, ptr %15, align 4
  call void @llvm.lifetime.end.p0(i64 8, ptr %14) #13
  br label %273

28:                                               ; preds = %22
  call void @llvm.lifetime.start.p0(i64 8, ptr %16) #13
  store double 0.000000e+00, ptr %16, align 8, !tbaa !23
  br label %29

29:                                               ; preds = %266, %28
  %30 = load double, ptr %16, align 8, !tbaa !23
  %31 = load double, ptr %13, align 8, !tbaa !23
  %32 = fcmp ole double %30, %31
  br i1 %32, label %34, label %33

33:                                               ; preds = %29
  store i32 5, ptr %15, align 4
  call void @llvm.lifetime.end.p0(i64 8, ptr %16) #13
  br label %269

34:                                               ; preds = %29
  %35 = load double, ptr %16, align 8, !tbaa !23
  %36 = load double, ptr %13, align 8, !tbaa !23
  %37 = fdiv double %35, %36
  store double %37, ptr %11, align 8, !tbaa !23
  %38 = getelementptr inbounds [4 x %struct.pointf_s], ptr %12, i64 0, i64 0
  %39 = load ptr, ptr %8, align 8, !tbaa !26
  %40 = load i64, ptr %14, align 8, !tbaa !20
  %41 = getelementptr inbounds nuw %struct.pointf_s, ptr %39, i64 %40
  call void @llvm.memcpy.p0.p0.i64(ptr align 16 %38, ptr align 8 %41, i64 16, i1 false), !tbaa.struct !22
  %42 = getelementptr inbounds [4 x %struct.pointf_s], ptr %12, i64 0, i64 1
  %43 = load ptr, ptr %8, align 8, !tbaa !26
  %44 = load i64, ptr %14, align 8, !tbaa !20
  %45 = add i64 %44, 1
  %46 = getelementptr inbounds nuw %struct.pointf_s, ptr %43, i64 %45
  call void @llvm.memcpy.p0.p0.i64(ptr align 16 %42, ptr align 8 %46, i64 16, i1 false), !tbaa.struct !22
  %47 = getelementptr inbounds [4 x %struct.pointf_s], ptr %12, i64 0, i64 2
  %48 = load ptr, ptr %8, align 8, !tbaa !26
  %49 = load i64, ptr %14, align 8, !tbaa !20
  %50 = add i64 %49, 2
  %51 = getelementptr inbounds nuw %struct.pointf_s, ptr %48, i64 %50
  call void @llvm.memcpy.p0.p0.i64(ptr align 16 %47, ptr align 8 %51, i64 16, i1 false), !tbaa.struct !22
  %52 = getelementptr inbounds [4 x %struct.pointf_s], ptr %12, i64 0, i64 3
  %53 = load ptr, ptr %8, align 8, !tbaa !26
  %54 = load i64, ptr %14, align 8, !tbaa !20
  %55 = add i64 %54, 3
  %56 = getelementptr inbounds nuw %struct.pointf_s, ptr %53, i64 %55
  call void @llvm.memcpy.p0.p0.i64(ptr align 16 %52, ptr align 8 %56, i64 16, i1 false), !tbaa.struct !22
  %57 = load double, ptr %11, align 8, !tbaa !23
  %58 = getelementptr inbounds [4 x %struct.pointf_s], ptr %12, i64 0, i64 1
  %59 = getelementptr inbounds nuw %struct.pointf_s, ptr %58, i32 0, i32 0
  %60 = load double, ptr %59, align 16, !tbaa !10
  %61 = getelementptr inbounds [4 x %struct.pointf_s], ptr %12, i64 0, i64 0
  %62 = getelementptr inbounds nuw %struct.pointf_s, ptr %61, i32 0, i32 0
  %63 = load double, ptr %62, align 16, !tbaa !10
  %64 = fsub double %60, %63
  %65 = getelementptr inbounds [4 x %struct.pointf_s], ptr %12, i64 0, i64 0
  %66 = getelementptr inbounds nuw %struct.pointf_s, ptr %65, i32 0, i32 0
  %67 = load double, ptr %66, align 16, !tbaa !10
  %68 = call double @llvm.fmuladd.f64(double %57, double %64, double %67)
  store double %68, ptr %66, align 16, !tbaa !10
  %69 = load double, ptr %11, align 8, !tbaa !23
  %70 = getelementptr inbounds [4 x %struct.pointf_s], ptr %12, i64 0, i64 1
  %71 = getelementptr inbounds nuw %struct.pointf_s, ptr %70, i32 0, i32 1
  %72 = load double, ptr %71, align 8, !tbaa !13
  %73 = getelementptr inbounds [4 x %struct.pointf_s], ptr %12, i64 0, i64 0
  %74 = getelementptr inbounds nuw %struct.pointf_s, ptr %73, i32 0, i32 1
  %75 = load double, ptr %74, align 8, !tbaa !13
  %76 = fsub double %72, %75
  %77 = getelementptr inbounds [4 x %struct.pointf_s], ptr %12, i64 0, i64 0
  %78 = getelementptr inbounds nuw %struct.pointf_s, ptr %77, i32 0, i32 1
  %79 = load double, ptr %78, align 8, !tbaa !13
  %80 = call double @llvm.fmuladd.f64(double %69, double %76, double %79)
  store double %80, ptr %78, align 8, !tbaa !13
  %81 = load double, ptr %11, align 8, !tbaa !23
  %82 = getelementptr inbounds [4 x %struct.pointf_s], ptr %12, i64 0, i64 2
  %83 = getelementptr inbounds nuw %struct.pointf_s, ptr %82, i32 0, i32 0
  %84 = load double, ptr %83, align 16, !tbaa !10
  %85 = getelementptr inbounds [4 x %struct.pointf_s], ptr %12, i64 0, i64 1
  %86 = getelementptr inbounds nuw %struct.pointf_s, ptr %85, i32 0, i32 0
  %87 = load double, ptr %86, align 16, !tbaa !10
  %88 = fsub double %84, %87
  %89 = getelementptr inbounds [4 x %struct.pointf_s], ptr %12, i64 0, i64 1
  %90 = getelementptr inbounds nuw %struct.pointf_s, ptr %89, i32 0, i32 0
  %91 = load double, ptr %90, align 16, !tbaa !10
  %92 = call double @llvm.fmuladd.f64(double %81, double %88, double %91)
  store double %92, ptr %90, align 16, !tbaa !10
  %93 = load double, ptr %11, align 8, !tbaa !23
  %94 = getelementptr inbounds [4 x %struct.pointf_s], ptr %12, i64 0, i64 2
  %95 = getelementptr inbounds nuw %struct.pointf_s, ptr %94, i32 0, i32 1
  %96 = load double, ptr %95, align 8, !tbaa !13
  %97 = getelementptr inbounds [4 x %struct.pointf_s], ptr %12, i64 0, i64 1
  %98 = getelementptr inbounds nuw %struct.pointf_s, ptr %97, i32 0, i32 1
  %99 = load double, ptr %98, align 8, !tbaa !13
  %100 = fsub double %96, %99
  %101 = getelementptr inbounds [4 x %struct.pointf_s], ptr %12, i64 0, i64 1
  %102 = getelementptr inbounds nuw %struct.pointf_s, ptr %101, i32 0, i32 1
  %103 = load double, ptr %102, align 8, !tbaa !13
  %104 = call double @llvm.fmuladd.f64(double %93, double %100, double %103)
  store double %104, ptr %102, align 8, !tbaa !13
  %105 = load double, ptr %11, align 8, !tbaa !23
  %106 = getelementptr inbounds [4 x %struct.pointf_s], ptr %12, i64 0, i64 3
  %107 = getelementptr inbounds nuw %struct.pointf_s, ptr %106, i32 0, i32 0
  %108 = load double, ptr %107, align 16, !tbaa !10
  %109 = getelementptr inbounds [4 x %struct.pointf_s], ptr %12, i64 0, i64 2
  %110 = getelementptr inbounds nuw %struct.pointf_s, ptr %109, i32 0, i32 0
  %111 = load double, ptr %110, align 16, !tbaa !10
  %112 = fsub double %108, %111
  %113 = getelementptr inbounds [4 x %struct.pointf_s], ptr %12, i64 0, i64 2
  %114 = getelementptr inbounds nuw %struct.pointf_s, ptr %113, i32 0, i32 0
  %115 = load double, ptr %114, align 16, !tbaa !10
  %116 = call double @llvm.fmuladd.f64(double %105, double %112, double %115)
  store double %116, ptr %114, align 16, !tbaa !10
  %117 = load double, ptr %11, align 8, !tbaa !23
  %118 = getelementptr inbounds [4 x %struct.pointf_s], ptr %12, i64 0, i64 3
  %119 = getelementptr inbounds nuw %struct.pointf_s, ptr %118, i32 0, i32 1
  %120 = load double, ptr %119, align 8, !tbaa !13
  %121 = getelementptr inbounds [4 x %struct.pointf_s], ptr %12, i64 0, i64 2
  %122 = getelementptr inbounds nuw %struct.pointf_s, ptr %121, i32 0, i32 1
  %123 = load double, ptr %122, align 8, !tbaa !13
  %124 = fsub double %120, %123
  %125 = getelementptr inbounds [4 x %struct.pointf_s], ptr %12, i64 0, i64 2
  %126 = getelementptr inbounds nuw %struct.pointf_s, ptr %125, i32 0, i32 1
  %127 = load double, ptr %126, align 8, !tbaa !13
  %128 = call double @llvm.fmuladd.f64(double %117, double %124, double %127)
  store double %128, ptr %126, align 8, !tbaa !13
  %129 = load double, ptr %11, align 8, !tbaa !23
  %130 = getelementptr inbounds [4 x %struct.pointf_s], ptr %12, i64 0, i64 1
  %131 = getelementptr inbounds nuw %struct.pointf_s, ptr %130, i32 0, i32 0
  %132 = load double, ptr %131, align 16, !tbaa !10
  %133 = getelementptr inbounds [4 x %struct.pointf_s], ptr %12, i64 0, i64 0
  %134 = getelementptr inbounds nuw %struct.pointf_s, ptr %133, i32 0, i32 0
  %135 = load double, ptr %134, align 16, !tbaa !10
  %136 = fsub double %132, %135
  %137 = getelementptr inbounds [4 x %struct.pointf_s], ptr %12, i64 0, i64 0
  %138 = getelementptr inbounds nuw %struct.pointf_s, ptr %137, i32 0, i32 0
  %139 = load double, ptr %138, align 16, !tbaa !10
  %140 = call double @llvm.fmuladd.f64(double %129, double %136, double %139)
  store double %140, ptr %138, align 16, !tbaa !10
  %141 = load double, ptr %11, align 8, !tbaa !23
  %142 = getelementptr inbounds [4 x %struct.pointf_s], ptr %12, i64 0, i64 1
  %143 = getelementptr inbounds nuw %struct.pointf_s, ptr %142, i32 0, i32 1
  %144 = load double, ptr %143, align 8, !tbaa !13
  %145 = getelementptr inbounds [4 x %struct.pointf_s], ptr %12, i64 0, i64 0
  %146 = getelementptr inbounds nuw %struct.pointf_s, ptr %145, i32 0, i32 1
  %147 = load double, ptr %146, align 8, !tbaa !13
  %148 = fsub double %144, %147
  %149 = getelementptr inbounds [4 x %struct.pointf_s], ptr %12, i64 0, i64 0
  %150 = getelementptr inbounds nuw %struct.pointf_s, ptr %149, i32 0, i32 1
  %151 = load double, ptr %150, align 8, !tbaa !13
  %152 = call double @llvm.fmuladd.f64(double %141, double %148, double %151)
  store double %152, ptr %150, align 8, !tbaa !13
  %153 = load double, ptr %11, align 8, !tbaa !23
  %154 = getelementptr inbounds [4 x %struct.pointf_s], ptr %12, i64 0, i64 2
  %155 = getelementptr inbounds nuw %struct.pointf_s, ptr %154, i32 0, i32 0
  %156 = load double, ptr %155, align 16, !tbaa !10
  %157 = getelementptr inbounds [4 x %struct.pointf_s], ptr %12, i64 0, i64 1
  %158 = getelementptr inbounds nuw %struct.pointf_s, ptr %157, i32 0, i32 0
  %159 = load double, ptr %158, align 16, !tbaa !10
  %160 = fsub double %156, %159
  %161 = getelementptr inbounds [4 x %struct.pointf_s], ptr %12, i64 0, i64 1
  %162 = getelementptr inbounds nuw %struct.pointf_s, ptr %161, i32 0, i32 0
  %163 = load double, ptr %162, align 16, !tbaa !10
  %164 = call double @llvm.fmuladd.f64(double %153, double %160, double %163)
  store double %164, ptr %162, align 16, !tbaa !10
  %165 = load double, ptr %11, align 8, !tbaa !23
  %166 = getelementptr inbounds [4 x %struct.pointf_s], ptr %12, i64 0, i64 2
  %167 = getelementptr inbounds nuw %struct.pointf_s, ptr %166, i32 0, i32 1
  %168 = load double, ptr %167, align 8, !tbaa !13
  %169 = getelementptr inbounds [4 x %struct.pointf_s], ptr %12, i64 0, i64 1
  %170 = getelementptr inbounds nuw %struct.pointf_s, ptr %169, i32 0, i32 1
  %171 = load double, ptr %170, align 8, !tbaa !13
  %172 = fsub double %168, %171
  %173 = getelementptr inbounds [4 x %struct.pointf_s], ptr %12, i64 0, i64 1
  %174 = getelementptr inbounds nuw %struct.pointf_s, ptr %173, i32 0, i32 1
  %175 = load double, ptr %174, align 8, !tbaa !13
  %176 = call double @llvm.fmuladd.f64(double %165, double %172, double %175)
  store double %176, ptr %174, align 8, !tbaa !13
  %177 = load double, ptr %11, align 8, !tbaa !23
  %178 = getelementptr inbounds [4 x %struct.pointf_s], ptr %12, i64 0, i64 1
  %179 = getelementptr inbounds nuw %struct.pointf_s, ptr %178, i32 0, i32 0
  %180 = load double, ptr %179, align 16, !tbaa !10
  %181 = getelementptr inbounds [4 x %struct.pointf_s], ptr %12, i64 0, i64 0
  %182 = getelementptr inbounds nuw %struct.pointf_s, ptr %181, i32 0, i32 0
  %183 = load double, ptr %182, align 16, !tbaa !10
  %184 = fsub double %180, %183
  %185 = getelementptr inbounds [4 x %struct.pointf_s], ptr %12, i64 0, i64 0
  %186 = getelementptr inbounds nuw %struct.pointf_s, ptr %185, i32 0, i32 0
  %187 = load double, ptr %186, align 16, !tbaa !10
  %188 = call double @llvm.fmuladd.f64(double %177, double %184, double %187)
  store double %188, ptr %186, align 16, !tbaa !10
  %189 = load double, ptr %11, align 8, !tbaa !23
  %190 = getelementptr inbounds [4 x %struct.pointf_s], ptr %12, i64 0, i64 1
  %191 = getelementptr inbounds nuw %struct.pointf_s, ptr %190, i32 0, i32 1
  %192 = load double, ptr %191, align 8, !tbaa !13
  %193 = getelementptr inbounds [4 x %struct.pointf_s], ptr %12, i64 0, i64 0
  %194 = getelementptr inbounds nuw %struct.pointf_s, ptr %193, i32 0, i32 1
  %195 = load double, ptr %194, align 8, !tbaa !13
  %196 = fsub double %192, %195
  %197 = getelementptr inbounds [4 x %struct.pointf_s], ptr %12, i64 0, i64 0
  %198 = getelementptr inbounds nuw %struct.pointf_s, ptr %197, i32 0, i32 1
  %199 = load double, ptr %198, align 8, !tbaa !13
  %200 = call double @llvm.fmuladd.f64(double %189, double %196, double %199)
  store double %200, ptr %198, align 8, !tbaa !13
  call void @llvm.lifetime.start.p0(i64 8, ptr %17) #13
  store i64 0, ptr %17, align 8, !tbaa !20
  br label %201

201:                                              ; preds = %262, %34
  %202 = load i64, ptr %17, align 8, !tbaa !20
  %203 = load i64, ptr %7, align 8, !tbaa !20
  %204 = icmp ult i64 %202, %203
  br i1 %204, label %206, label %205

205:                                              ; preds = %201
  store i32 8, ptr %15, align 4
  call void @llvm.lifetime.end.p0(i64 8, ptr %17) #13
  br label %265

206:                                              ; preds = %201
  %207 = getelementptr inbounds [4 x %struct.pointf_s], ptr %12, i64 0, i64 0
  %208 = getelementptr inbounds nuw %struct.pointf_s, ptr %207, i32 0, i32 1
  %209 = load double, ptr %208, align 8, !tbaa !13
  %210 = load ptr, ptr %6, align 8, !tbaa !30
  %211 = load i64, ptr %17, align 8, !tbaa !20
  %212 = getelementptr inbounds nuw %struct.boxf, ptr %210, i64 %211
  %213 = getelementptr inbounds nuw %struct.boxf, ptr %212, i32 0, i32 1
  %214 = getelementptr inbounds nuw %struct.pointf_s, ptr %213, i32 0, i32 1
  %215 = load double, ptr %214, align 8, !tbaa !58
  %216 = fadd double %215, 1.000000e-04
  %217 = fcmp ole double %209, %216
  br i1 %217, label %218, label %261

218:                                              ; preds = %206
  %219 = getelementptr inbounds [4 x %struct.pointf_s], ptr %12, i64 0, i64 0
  %220 = getelementptr inbounds nuw %struct.pointf_s, ptr %219, i32 0, i32 1
  %221 = load double, ptr %220, align 8, !tbaa !13
  %222 = load ptr, ptr %6, align 8, !tbaa !30
  %223 = load i64, ptr %17, align 8, !tbaa !20
  %224 = getelementptr inbounds nuw %struct.boxf, ptr %222, i64 %223
  %225 = getelementptr inbounds nuw %struct.boxf, ptr %224, i32 0, i32 0
  %226 = getelementptr inbounds nuw %struct.pointf_s, ptr %225, i32 0, i32 1
  %227 = load double, ptr %226, align 8, !tbaa !55
  %228 = fsub double %227, 1.000000e-04
  %229 = fcmp oge double %221, %228
  br i1 %229, label %230, label %261

230:                                              ; preds = %218
  %231 = load ptr, ptr %6, align 8, !tbaa !30
  %232 = load i64, ptr %17, align 8, !tbaa !20
  %233 = getelementptr inbounds nuw %struct.boxf, ptr %231, i64 %232
  %234 = getelementptr inbounds nuw %struct.boxf, ptr %233, i32 0, i32 0
  %235 = getelementptr inbounds nuw %struct.pointf_s, ptr %234, i32 0, i32 0
  %236 = load double, ptr %235, align 8, !tbaa !65
  %237 = getelementptr inbounds [4 x %struct.pointf_s], ptr %12, i64 0, i64 0
  %238 = getelementptr inbounds nuw %struct.pointf_s, ptr %237, i32 0, i32 0
  %239 = load double, ptr %238, align 16, !tbaa !10
  %240 = call double @llvm.minnum.f64(double %236, double %239)
  %241 = load ptr, ptr %6, align 8, !tbaa !30
  %242 = load i64, ptr %17, align 8, !tbaa !20
  %243 = getelementptr inbounds nuw %struct.boxf, ptr %241, i64 %242
  %244 = getelementptr inbounds nuw %struct.boxf, ptr %243, i32 0, i32 0
  %245 = getelementptr inbounds nuw %struct.pointf_s, ptr %244, i32 0, i32 0
  store double %240, ptr %245, align 8, !tbaa !65
  %246 = load ptr, ptr %6, align 8, !tbaa !30
  %247 = load i64, ptr %17, align 8, !tbaa !20
  %248 = getelementptr inbounds nuw %struct.boxf, ptr %246, i64 %247
  %249 = getelementptr inbounds nuw %struct.boxf, ptr %248, i32 0, i32 1
  %250 = getelementptr inbounds nuw %struct.pointf_s, ptr %249, i32 0, i32 0
  %251 = load double, ptr %250, align 8, !tbaa !66
  %252 = getelementptr inbounds [4 x %struct.pointf_s], ptr %12, i64 0, i64 0
  %253 = getelementptr inbounds nuw %struct.pointf_s, ptr %252, i32 0, i32 0
  %254 = load double, ptr %253, align 16, !tbaa !10
  %255 = call double @llvm.maxnum.f64(double %251, double %254)
  %256 = load ptr, ptr %6, align 8, !tbaa !30
  %257 = load i64, ptr %17, align 8, !tbaa !20
  %258 = getelementptr inbounds nuw %struct.boxf, ptr %256, i64 %257
  %259 = getelementptr inbounds nuw %struct.boxf, ptr %258, i32 0, i32 1
  %260 = getelementptr inbounds nuw %struct.pointf_s, ptr %259, i32 0, i32 0
  store double %255, ptr %260, align 8, !tbaa !66
  br label %261

261:                                              ; preds = %230, %218, %206
  br label %262

262:                                              ; preds = %261
  %263 = load i64, ptr %17, align 8, !tbaa !20
  %264 = add i64 %263, 1
  store i64 %264, ptr %17, align 8, !tbaa !20
  br label %201, !llvm.loop !124

265:                                              ; preds = %205
  br label %266

266:                                              ; preds = %265
  %267 = load double, ptr %16, align 8, !tbaa !23
  %268 = fadd double %267, 1.000000e+00
  store double %268, ptr %16, align 8, !tbaa !23
  br label %29, !llvm.loop !125

269:                                              ; preds = %33
  br label %270

270:                                              ; preds = %269
  %271 = load i64, ptr %14, align 8, !tbaa !20
  %272 = add i64 %271, 3
  store i64 %272, ptr %14, align 8, !tbaa !20
  br label %22, !llvm.loop !126

273:                                              ; preds = %27
  call void @llvm.lifetime.end.p0(i64 8, ptr %13) #13
  call void @llvm.lifetime.end.p0(i64 64, ptr %12) #13
  call void @llvm.lifetime.end.p0(i64 8, ptr %11) #13
  ret void
}