; Function Attrs: nofree norecurse nosync nounwind memory(argmem: readwrite) uwtable
define internal fastcc void @limitBoxes(ptr noundef captures(none) %0, i64 noundef %1, ptr noundef readonly captures(none) %2, i64 noundef %3, double noundef %4) unnamed_addr #12 {
  %6 = uitofp i64 %1 to double
  %7 = fmul double %4, %6
  %8 = icmp ult i64 %3, 4
  %9 = fcmp ult double %7, 0.000000e+00
  %or.cond = or i1 %8, %9
  %.not = icmp eq i64 %1, 0
  %or.cond89 = or i1 %or.cond, %.not
  br i1 %or.cond89, label %._crit_edge, label %.preheader.us85

.preheader.us85:                                  ; preds = %5, %..loopexit_crit_edge.split.us.us
  %10 = phi i64 [ %61, %..loopexit_crit_edge.split.us.us ], [ 3, %5 ]
  %.07784.us86 = phi i64 [ %10, %..loopexit_crit_edge.split.us.us ], [ 0, %5 ]
  %11 = getelementptr inbounds nuw %struct.pointf_s, ptr %2, i64 %.07784.us86
  %.sroa.14.0..sroa_idx.us = getelementptr inbounds nuw i8, ptr %11, i64 8
  %12 = getelementptr i8, ptr %11, i64 16
  %.sroa.35.16..sroa_idx.us = getelementptr i8, ptr %11, i64 24
  %13 = getelementptr i8, ptr %11, i64 32
  %.sroa.50.32..sroa_idx.us = getelementptr i8, ptr %11, i64 40
  %14 = getelementptr inbounds nuw %struct.pointf_s, ptr %2, i64 %10
  %.sroa.57.48..sroa_idx.us = getelementptr inbounds nuw i8, ptr %14, i64 8
  br label %.lr.ph.us.us

.lr.ph.us.us:                                     ; preds = %._crit_edge.us.us, %.preheader.us85
  %.07682.us.us = phi double [ 0.000000e+00, %.preheader.us85 ], [ %59, %._crit_edge.us.us ]
  %15 = fdiv double %.07682.us.us, %7
  %.sroa.0.0.copyload.us.us = load double, ptr %11, align 8, !tbaa !18
  %.sroa.14.0.copyload.us.us = load double, ptr %.sroa.14.0..sroa_idx.us, align 8, !tbaa !18
  %.sroa.25.16.copyload.us.us = load double, ptr %12, align 8, !tbaa !18
  %.sroa.35.16.copyload.us.us = load double, ptr %.sroa.35.16..sroa_idx.us, align 8, !tbaa !18
  %.sroa.44.32.copyload.us.us = load double, ptr %13, align 8, !tbaa !18
  %.sroa.50.32.copyload.us.us = load double, ptr %.sroa.50.32..sroa_idx.us, align 8, !tbaa !18
  %.sroa.55.48.copyload.us.us = load double, ptr %14, align 8, !tbaa !18
  %.sroa.57.48.copyload.us.us = load double, ptr %.sroa.57.48..sroa_idx.us, align 8, !tbaa !18
  %16 = fsub double %.sroa.25.16.copyload.us.us, %.sroa.0.0.copyload.us.us
  %17 = tail call double @llvm.fmuladd.f64(double %15, double %16, double %.sroa.0.0.copyload.us.us)
  %18 = fsub double %.sroa.35.16.copyload.us.us, %.sroa.14.0.copyload.us.us
  %19 = tail call double @llvm.fmuladd.f64(double %15, double %18, double %.sroa.14.0.copyload.us.us)
  %20 = fsub double %.sroa.44.32.copyload.us.us, %.sroa.25.16.copyload.us.us
  %21 = tail call double @llvm.fmuladd.f64(double %15, double %20, double %.sroa.25.16.copyload.us.us)
  %22 = fsub double %.sroa.50.32.copyload.us.us, %.sroa.35.16.copyload.us.us
  %23 = tail call double @llvm.fmuladd.f64(double %15, double %22, double %.sroa.35.16.copyload.us.us)
  %24 = fsub double %.sroa.55.48.copyload.us.us, %.sroa.44.32.copyload.us.us
  %25 = tail call double @llvm.fmuladd.f64(double %15, double %24, double %.sroa.44.32.copyload.us.us)
  %26 = fsub double %.sroa.57.48.copyload.us.us, %.sroa.50.32.copyload.us.us
  %27 = tail call double @llvm.fmuladd.f64(double %15, double %26, double %.sroa.50.32.copyload.us.us)
  %28 = fsub double %21, %17
  %29 = tail call double @llvm.fmuladd.f64(double %15, double %28, double %17)
  %30 = fsub double %23, %19
  %31 = tail call double @llvm.fmuladd.f64(double %15, double %30, double %19)
  %32 = fsub double %25, %21
  %33 = tail call double @llvm.fmuladd.f64(double %15, double %32, double %21)
  %34 = fsub double %27, %23
  %35 = tail call double @llvm.fmuladd.f64(double %15, double %34, double %23)
  %36 = fsub double %33, %29
  %37 = tail call double @llvm.fmuladd.f64(double %15, double %36, double %29)
  %38 = fsub double %35, %31
  %39 = tail call double @llvm.fmuladd.f64(double %15, double %38, double %31)
  br label %40

40:                                               ; preds = %57, %.lr.ph.us.us
  %.081.us.us = phi i64 [ 0, %.lr.ph.us.us ], [ %58, %57 ]
  %41 = getelementptr inbounds nuw %struct.boxf, ptr %0, i64 %.081.us.us
  %42 = getelementptr inbounds nuw i8, ptr %41, i64 16
  %43 = getelementptr inbounds nuw i8, ptr %41, i64 24
  %44 = load double, ptr %43, align 8, !tbaa !48
  %45 = fadd double %44, 1.000000e-04
  %46 = fcmp ugt double %39, %45
  br i1 %46, label %57, label %47

47:                                               ; preds = %40
  %48 = getelementptr inbounds nuw i8, ptr %41, i64 8
  %49 = load double, ptr %48, align 8, !tbaa !47
  %50 = fadd double %49, -1.000000e-04
  %51 = fcmp ult double %39, %50
  br i1 %51, label %57, label %52

52:                                               ; preds = %47
  %53 = load double, ptr %41, align 8, !tbaa !44
  %54 = tail call double @llvm.minnum.f64(double %53, double %37)
  store double %54, ptr %41, align 8, !tbaa !44
  %55 = load double, ptr %42, align 8, !tbaa !46
  %56 = tail call double @llvm.maxnum.f64(double %55, double %37)
  store double %56, ptr %42, align 8, !tbaa !46
  br label %57

57:                                               ; preds = %52, %47, %40
  %58 = add nuw i64 %.081.us.us, 1
  %exitcond.not = icmp eq i64 %58, %1
  br i1 %exitcond.not, label %._crit_edge.us.us, label %40, !llvm.loop !131

._crit_edge.us.us:                                ; preds = %57
  %59 = fadd double %.07682.us.us, 1.000000e+00
  %60 = fcmp ugt double %59, %7
  br i1 %60, label %..loopexit_crit_edge.split.us.us, label %.lr.ph.us.us, !llvm.loop !132

..loopexit_crit_edge.split.us.us:                 ; preds = %._crit_edge.us.us
  %61 = add i64 %10, 3
  %62 = icmp ult i64 %61, %3
  br i1 %62, label %.preheader.us85, label %._crit_edge, !llvm.loop !133

._crit_edge:                                      ; preds = %..loopexit_crit_edge.split.us.us, %5
  ret void
}